target datalayout = "e-m:e-p270:32:32-p271:32:32-p272:64:64-i64:64-i128:128-f80:128-n8:16:32:64-S128"
target triple = "x86_64-pc-linux-gnu"

%"class.icu_77::FormattedStringBuilder" = type { i8, %"union.icu_77::FormattedStringBuilder::ValueOrHeapArray", %"union.icu_77::FormattedStringBuilder::ValueOrHeapArray.0", i32, i32 }
%"union.icu_77::FormattedStringBuilder::ValueOrHeapArray" = type { %struct.anon, [64 x i8] }
%struct.anon = type { ptr, i32 }
%"union.icu_77::FormattedStringBuilder::ValueOrHeapArray.0" = type { %struct.anon.1, [24 x i8] }
%struct.anon.1 = type { ptr, i32 }

; Function Attrs: mustprogress uwtable
define void @_ZN6icu_7722FormattedStringBuilderC2ERKS0_(ptr noundef nonnull align 8 dereferenceable(136) %0, ptr noundef nonnull align 8 dereferenceable(136) %1) unnamed_addr #3 align 2 {
  %3 = alloca ptr, align 8
  %4 = alloca ptr, align 8
  store ptr %0, ptr %3, align 8, !tbaa !3
  store ptr %1, ptr %4, align 8, !tbaa !3
  %5 = load ptr, ptr %3, align 8
  %6 = getelementptr inbounds nuw %"class.icu_77::FormattedStringBuilder", ptr %5, i32 0, i32 0
  store i8 0, ptr %6, align 8, !tbaa !8
  %7 = getelementptr inbounds nuw %"class.icu_77::FormattedStringBuilder", ptr %5, i32 0, i32 3
  store i32 20, ptr %7, align 8, !tbaa !12
  %8 = getelementptr inbounds nuw %"class.icu_77::FormattedStringBuilder", ptr %5, i32 0, i32 4
  store i32 0, ptr %8, align 4, !tbaa !13
  %9 = load ptr, ptr %4, align 8, !tbaa !3
  %10 = call noundef nonnull align 8 dereferenceable(136) ptr @_ZN6icu_7722FormattedStringBuilderaSERKS0_(ptr noundef nonnull align 8 dereferenceable(136) %5, ptr noundef nonnull align 8 dereferenceable(136) %9)
  ret void
}