; Function Attrs: mustprogress uwtable
define void @_ZN6icu_7722FormattedStringBuilderC2ERKS0_(ptr noundef nonnull align 8 dereferenceable(136) initializes((0, 1), (128, 136)) %0, ptr noundef nonnull align 8 dereferenceable(136) %1) unnamed_addr #5 align 2 {
  store i8 0, ptr %0, align 8, !tbaa !3
  %3 = getelementptr inbounds nuw i8, ptr %0, i64 128
  store i32 20, ptr %3, align 8, !tbaa !9
  %4 = getelementptr inbounds nuw i8, ptr %0, i64 132
  store i32 0, ptr %4, align 4, !tbaa !10
  %5 = tail call noundef nonnull align 8 dereferenceable(136) ptr @_ZN6icu_7722FormattedStringBuilderaSERKS0_(ptr noundef nonnull align 8 dereferenceable(136) %0, ptr noundef nonnull align 8 dereferenceable(136) %1)
  ret void
}